target datalayout = "e-m:e-p270:32:32-p271:32:32-p272:64:64-i64:64-i128:128-f80:128-n8:16:32:64-S128"
target triple = "x86_64-pc-linux-gnu"

%struct.AVTextFormatter = type { ptr, i32, ptr, ptr, ptr, ptr, ptr, ptr, ptr, i32 }
%struct.AVTextFormatContext = type { ptr, ptr, ptr, ptr, ptr, ptr, i32, i32, [12 x i32], [12 x [100 x i32]], [12 x ptr], [12 x %struct.AVBPrint], i32, i32, i32, i32, i32, ptr, i32, ptr, i32 }
%struct.AVBPrint = type { ptr, i32, i32, i32, [1 x i8], [1000 x i8] }

; Function Attrs: nounwind uwtable
define i32 @avtext_context_close(ptr noundef %0) #0 {
  %2 = alloca i32, align 4
  %3 = alloca ptr, align 8
  %4 = alloca ptr, align 8
  %5 = alloca i32, align 4
  %6 = alloca i32, align 4
  %7 = alloca i32, align 4
  store ptr %0, ptr %3, align 8, !tbaa !4
  call void @llvm.lifetime.start.p0(i64 8, ptr %4) #10
  %8 = load ptr, ptr %3, align 8, !tbaa !4
  %9 = load ptr, ptr %8, align 8, !tbaa !10
  store ptr %9, ptr %4, align 8, !tbaa !10
  call void @llvm.lifetime.start.p0(i64 4, ptr %5) #10
  call void @llvm.lifetime.start.p0(i64 4, ptr %6) #10
  store i32 0, ptr %6, align 4, !tbaa !12
  %10 = load ptr, ptr %4, align 8, !tbaa !10
  %11 = icmp ne ptr %10, null
  br i1 %11, label %13, label %12

12:                                               ; preds = %1
  store i32 -22, ptr %2, align 4
  store i32 1, ptr %7, align 4
  br label %69

13:                                               ; preds = %1
  %14 = load ptr, ptr %4, align 8, !tbaa !10
  %15 = getelementptr inbounds nuw %struct.AVTextFormatContext, ptr %14, i32 0, i32 17
  call void @av_hash_freep(ptr noundef %15)
  %16 = load ptr, ptr %4, align 8, !tbaa !10
  %17 = getelementptr inbounds nuw %struct.AVTextFormatContext, ptr %16, i32 0, i32 17
  call void @av_hash_freep(ptr noundef %17)
  %18 = load ptr, ptr %4, align 8, !tbaa !10
  %19 = getelementptr inbounds nuw %struct.AVTextFormatContext, ptr %18, i32 0, i32 1
  %20 = load ptr, ptr %19, align 8, !tbaa !14
  %21 = icmp ne ptr %20, null
  br i1 %21, label %22, label %49

22:                                               ; preds = %13
  %23 = load ptr, ptr %4, align 8, !tbaa !10
  %24 = getelementptr inbounds nuw %struct.AVTextFormatContext, ptr %23, i32 0, i32 1
  %25 = load ptr, ptr %24, align 8, !tbaa !14
  %26 = getelementptr inbounds nuw %struct.AVTextFormatter, ptr %25, i32 0, i32 4
  %27 = load ptr, ptr %26, align 8, !tbaa !22
  %28 = icmp ne ptr %27, null
  br i1 %28, label %29, label %37

29:                                               ; preds = %22
  %30 = load ptr, ptr %4, align 8, !tbaa !10
  %31 = getelementptr inbounds nuw %struct.AVTextFormatContext, ptr %30, i32 0, i32 1
  %32 = load ptr, ptr %31, align 8, !tbaa !14
  %33 = getelementptr inbounds nuw %struct.AVTextFormatter, ptr %32, i32 0, i32 4
  %34 = load ptr, ptr %33, align 8, !tbaa !22
  %35 = load ptr, ptr %4, align 8, !tbaa !10
  %36 = call i32 %34(ptr noundef %35)
  store i32 %36, ptr %6, align 4, !tbaa !12
  br label %37

37:                                               ; preds = %29, %22
  %38 = load ptr, ptr %4, align 8, !tbaa !10
  %39 = getelementptr inbounds nuw %struct.AVTextFormatContext, ptr %38, i32 0, i32 1
  %40 = load ptr, ptr %39, align 8, !tbaa !14
  %41 = getelementptr inbounds nuw %struct.AVTextFormatter, ptr %40, i32 0, i32 0
  %42 = load ptr, ptr %41, align 8, !tbaa !24
  %43 = icmp ne ptr %42, null
  br i1 %43, label %44, label %48

44:                                               ; preds = %37
  %45 = load ptr, ptr %4, align 8, !tbaa !10
  %46 = getelementptr inbounds nuw %struct.AVTextFormatContext, ptr %45, i32 0, i32 4
  %47 = load ptr, ptr %46, align 8, !tbaa !25
  call void @av_opt_free(ptr noundef %47)
  br label %48

48:                                               ; preds = %44, %37
  br label %49

49:                                               ; preds = %48, %13
  store i32 0, ptr %5, align 4, !tbaa !12
  br label %50

50:                                               ; preds = %60, %49
  %51 = load i32, ptr %5, align 4, !tbaa !12
  %52 = icmp slt i32 %51, 12
  br i1 %52, label %53, label %63

53:                                               ; preds = %50
  %54 = load ptr, ptr %4, align 8, !tbaa !10
  %55 = getelementptr inbounds nuw %struct.AVTextFormatContext, ptr %54, i32 0, i32 11
  %56 = load i32, ptr %5, align 4, !tbaa !12
  %57 = sext i32 %56 to i64
  %58 = getelementptr inbounds [12 x %struct.AVBPrint], ptr %55, i64 0, i64 %57
  %59 = call i32 @av_bprint_finalize(ptr noundef %58, ptr noundef null)
  br label %60

60:                                               ; preds = %53
  %61 = load i32, ptr %5, align 4, !tbaa !12
  %62 = add nsw i32 %61, 1
  store i32 %62, ptr %5, align 4, !tbaa !12
  br label %50, !llvm.loop !26

63:                                               ; preds = %50
  %64 = load ptr, ptr %4, align 8, !tbaa !10
  %65 = getelementptr inbounds nuw %struct.AVTextFormatContext, ptr %64, i32 0, i32 4
  call void @av_freep(ptr noundef %65)
  %66 = load ptr, ptr %4, align 8, !tbaa !10
  call void @av_opt_free(ptr noundef %66)
  %67 = load ptr, ptr %3, align 8, !tbaa !4
  call void @av_freep(ptr noundef %67)
  %68 = load i32, ptr %6, align 4, !tbaa !12
  store i32 %68, ptr %2, align 4
  store i32 1, ptr %7, align 4
  br label %69

69:                                               ; preds = %63, %12
  call void @llvm.lifetime.end.p0(i64 4, ptr %6) #10
  call void @llvm.lifetime.end.p0(i64 4, ptr %5) #10
  call void @llvm.lifetime.end.p0(i64 8, ptr %4) #10
  %70 = load i32, ptr %2, align 4
  ret i32 %70
}