; Function Attrs: nounwind uwtable
define i32 @avtext_context_close(ptr noundef %0) local_unnamed_addr #0 {
  %2 = load ptr, ptr %0, align 8, !tbaa !4
  %.not = icmp eq ptr %2, null
  br i1 %.not, label %25, label %3

3:                                                ; preds = %1
  %4 = getelementptr inbounds nuw i8, ptr %2, i64 17312
  tail call void @av_hash_freep(ptr noundef nonnull %4) #12
  tail call void @av_hash_freep(ptr noundef nonnull %4) #12
  %5 = getelementptr inbounds nuw i8, ptr %2, i64 8
  %6 = load ptr, ptr %5, align 8, !tbaa !9
  %.not23 = icmp eq ptr %6, null
  br i1 %.not23, label %18, label %7

7:                                                ; preds = %3
  %8 = getelementptr inbounds nuw i8, ptr %6, i64 32
  %9 = load ptr, ptr %8, align 8, !tbaa !18
  %.not24 = icmp eq ptr %9, null
  br i1 %.not24, label %12, label %10

10:                                               ; preds = %7
  %11 = tail call i32 %9(ptr noundef nonnull %2) #12
  %.pre = load ptr, ptr %5, align 8, !tbaa !9
  br label %12

12:                                               ; preds = %10, %7
  %13 = phi ptr [ %.pre, %10 ], [ %6, %7 ]
  %.1 = phi i32 [ %11, %10 ], [ 0, %7 ]
  %14 = load ptr, ptr %13, align 8, !tbaa !20
  %.not25 = icmp eq ptr %14, null
  br i1 %.not25, label %18, label %15

15:                                               ; preds = %12
  %16 = getelementptr inbounds nuw i8, ptr %2, i64 32
  %17 = load ptr, ptr %16, align 8, !tbaa !21
  tail call void @av_opt_free(ptr noundef %17) #12
  br label %18

18:                                               ; preds = %12, %15, %3
  %.0 = phi i32 [ %.1, %15 ], [ %.1, %12 ], [ 0, %3 ]
  %19 = getelementptr inbounds nuw i8, ptr %2, i64 5000
  br label %20

20:                                               ; preds = %18, %20
  %indvars.iv = phi i64 [ 0, %18 ], [ %indvars.iv.next, %20 ]
  %21 = getelementptr inbounds nuw [12 x %struct.AVBPrint], ptr %19, i64 0, i64 %indvars.iv
  %22 = tail call i32 @av_bprint_finalize(ptr noundef nonnull %21, ptr noundef null) #12
  %indvars.iv.next = add nuw nsw i64 %indvars.iv, 1
  %exitcond.not = icmp eq i64 %indvars.iv.next, 12
  br i1 %exitcond.not, label %23, label %20, !llvm.loop !22

23:                                               ; preds = %20
  %24 = getelementptr inbounds nuw i8, ptr %2, i64 32
  tail call void @av_freep(ptr noundef nonnull %24) #12
  tail call void @av_opt_free(ptr noundef nonnull %2) #12
  tail call void @av_freep(ptr noundef nonnull %0) #12
  br label %25

25:                                               ; preds = %1, %23
  %.019 = phi i32 [ %.0, %23 ], [ -22, %1 ]
  ret i32 %.019
}